(dp0
S'S3E_EXT_ADNINJA'
p1
NsS'I3D_OS_LINUX'
p2
NsS'IW_TRACE_CHANNEL_ADNINJA_VERBOSE'
p3
S'2'
p4
sS'IW_TRACE_CHANNEL_ADNINJA'
p5
S'1'
p6
sS'IW_PLATFORM_LINUX'
p7
NsS'I3D_ARCH_ARM'
p8
NsS'IW_SDK'
p9
NsS'IW_MKF_S3EADNINJA_BUILD'
p10
NsS'IW_ASSERTION_CHANNEL_ADNINJA'
p11
g6
sS'IW_USE_ASSERTIONS'
p12
NsS'S3E_ANDROID'
p13
NsS'S3E_BUILD_EXT'
p14
NsS'IW_USE_TRACING'
p15
NsS'IW_MKF_EDK'
p16
NsS'I3D_PLATFORM_LINUX'
p17
NsS'IW_DEBUG'
p18
NsS'ANDROID'
p19
Ns.